target datalayout = "e-m:e-p270:32:32-p271:32:32-p272:64:64-i64:64-i128:128-f80:128-n8:16:32:64-S128"
target triple = "x86_64-pc-linux-gnu"

@.str.3 = private unnamed_addr constant [16 x i8] c"bitcoin.command\00", align 1
@.str.247 = private unnamed_addr constant [17 x i8] c"Bitcoin protocol\00", align 1
@.str.248 = private unnamed_addr constant [8 x i8] c"Bitcoin\00", align 1
@.str.249 = private unnamed_addr constant [8 x i8] c"bitcoin\00", align 1
@proto_bitcoin = internal global i32 0, align 4
@.str.250 = private unnamed_addr constant [16 x i8] c"Bitcoin Command\00", align 1
@bitcoin_command_table = internal global ptr null, align 8
@bitcoin_handle = internal global ptr null, align 8
@.str.251 = private unnamed_addr constant [10 x i8] c"desegment\00", align 1
@.str.252 = private unnamed_addr constant [62 x i8] c"Desegment all Bitcoin messages spanning multiple TCP segments\00", align 1
@.str.253 = private unnamed_addr constant [91 x i8] c"Whether the Bitcoin dissector should desegment all messages spanning multiple TCP segments\00", align 1
@bitcoin_desegment = internal global i8 1, align 1

; Function Attrs: null_pointer_is_valid sspstrong uwtable
define hidden void @proto_register_bitcoin() #0 {
  %1 = alloca ptr, align 8
  %2 = alloca ptr, align 8
  call void @llvm.lifetime.start.p0(i64 8, ptr %1) #4
  call void @llvm.lifetime.start.p0(i64 8, ptr %2) #4
  %3 = call i32 @proto_register_protocol(ptr noundef @.str.247, ptr noundef @.str.248, ptr noundef @.str.249)
  store i32 %3, ptr @proto_bitcoin, align 4
  call void @proto_register_subtree_array(ptr noundef @proto_register_bitcoin.ett, i32 noundef 16)
  %4 = load i32, ptr @proto_bitcoin, align 4
  call void @proto_register_field_array(i32 noundef %4, ptr noundef @proto_register_bitcoin.hf, i32 noundef 192)
  %5 = load i32, ptr @proto_bitcoin, align 4
  %6 = call ptr @expert_register_protocol(i32 noundef %5)
  store ptr %6, ptr %2, align 8
  %7 = load ptr, ptr %2, align 8
  call void @expert_register_field_array(ptr noundef %7, ptr noundef @proto_register_bitcoin.ei, i32 noundef 3)
  %8 = load i32, ptr @proto_bitcoin, align 4
  %9 = call ptr @register_dissector_table(ptr noundef @.str.3, ptr noundef @.str.250, i32 noundef %8, i32 noundef 26, i32 noundef 0)
  store ptr %9, ptr @bitcoin_command_table, align 8
  %10 = load i32, ptr @proto_bitcoin, align 4
  %11 = call ptr @register_dissector(ptr noundef @.str.249, ptr noundef @dissect_bitcoin, i32 noundef %10)
  store ptr %11, ptr @bitcoin_handle, align 8
  %12 = load i32, ptr @proto_bitcoin, align 4
  %13 = call ptr @prefs_register_protocol(i32 noundef %12, ptr noundef null)
  store ptr %13, ptr %1, align 8
  %14 = load ptr, ptr %1, align 8
  call void @prefs_register_bool_preference(ptr noundef %14, ptr noundef @.str.251, ptr noundef @.str.252, ptr noundef @.str.253, ptr noundef @bitcoin_desegment)
  call void @llvm.lifetime.end.p0(i64 8, ptr %2) #4
  call void @llvm.lifetime.end.p0(i64 8, ptr %1) #4
  ret void
}