; Function Attrs: null_pointer_is_valid sspstrong uwtable
define hidden void @proto_register_bitcoin() local_unnamed_addr #0 {
  %1 = tail call i32 @proto_register_protocol(ptr noundef nonnull @.str.247, ptr noundef nonnull @.str.248, ptr noundef nonnull @.str.249)
  store i32 %1, ptr @proto_bitcoin, align 4
  tail call void @proto_register_subtree_array(ptr noundef nonnull @proto_register_bitcoin.ett, i32 noundef 16)
  %2 = load i32, ptr @proto_bitcoin, align 4
  tail call void @proto_register_field_array(i32 noundef %2, ptr noundef nonnull @proto_register_bitcoin.hf, i32 noundef 192)
  %3 = load i32, ptr @proto_bitcoin, align 4
  %4 = tail call ptr @expert_register_protocol(i32 noundef %3)
  tail call void @expert_register_field_array(ptr noundef %4, ptr noundef nonnull @proto_register_bitcoin.ei, i32 noundef 3)
  %5 = load i32, ptr @proto_bitcoin, align 4
  %6 = tail call ptr @register_dissector_table(ptr noundef nonnull @.str.3, ptr noundef nonnull @.str.250, i32 noundef %5, i32 noundef 26, i32 noundef 0)
  store ptr %6, ptr @bitcoin_command_table, align 8
  %7 = load i32, ptr @proto_bitcoin, align 4
  %8 = tail call ptr @register_dissector(ptr noundef nonnull @.str.249, ptr noundef nonnull @dissect_bitcoin, i32 noundef %7)
  store ptr %8, ptr @bitcoin_handle, align 8
  %9 = load i32, ptr @proto_bitcoin, align 4
  %10 = tail call ptr @prefs_register_protocol(i32 noundef %9, ptr noundef null)
  tail call void @prefs_register_bool_preference(ptr noundef %10, ptr noundef nonnull @.str.251, ptr noundef nonnull @.str.252, ptr noundef nonnull @.str.253, ptr noundef nonnull @bitcoin_desegment)
  ret void
}